target datalayout = "e-m:e-p270:32:32-p271:32:32-p272:64:64-i64:64-i128:128-f80:128-n8:16:32:64-S128"
target triple = "x86_64-pc-linux-gnu"

@l___private_Lean_Meta_Tactic_FunIndInfo_0__Lean_Meta_reprFunIndParamKind____x40_Lean_Meta_Tactic_FunIndInfo___hyg_28____closed__5 = internal global ptr null, align 8
@l___private_Lean_Meta_Tactic_FunIndInfo_0__Lean_Meta_reprFunIndParamKind____x40_Lean_Meta_Tactic_FunIndInfo___hyg_28____closed__8 = internal global ptr null, align 8
@l___private_Lean_Meta_Tactic_FunIndInfo_0__Lean_Meta_reprFunIndParamKind____x40_Lean_Meta_Tactic_FunIndInfo___hyg_28____closed__12 = internal global ptr null, align 8
@l___private_Lean_Meta_Tactic_FunIndInfo_0__Lean_Meta_reprFunIndParamKind____x40_Lean_Meta_Tactic_FunIndInfo___hyg_28____closed__14 = internal global ptr null, align 8
@l___private_Lean_Meta_Tactic_FunIndInfo_0__Lean_Meta_reprFunIndParamKind____x40_Lean_Meta_Tactic_FunIndInfo___hyg_28____closed__18 = internal global ptr null, align 8
@l___private_Lean_Meta_Tactic_FunIndInfo_0__Lean_Meta_reprFunIndParamKind____x40_Lean_Meta_Tactic_FunIndInfo___hyg_28____closed__20 = internal global ptr null, align 8

; Function Attrs: alwaysinline nounwind uwtable
define internal zeroext i1 @lean_is_scalar(ptr noundef %0) #1 {
  %2 = alloca ptr, align 8
  store ptr %0, ptr %2, align 8, !tbaa !4
  %3 = load ptr, ptr %2, align 8, !tbaa !4
  %4 = ptrtoint ptr %3 to i64
  %5 = and i64 %4, 1
  %6 = icmp eq i64 %5, 1
  ret i1 %6
}

; Function Attrs: alwaysinline nounwind uwtable
define internal zeroext i1 @lean_nat_le(ptr noundef %0, ptr noundef %1) #1 {
  %3 = alloca i1, align 1
  %4 = alloca ptr, align 8
  %5 = alloca ptr, align 8
  store ptr %0, ptr %4, align 8, !tbaa !4
  store ptr %1, ptr %5, align 8, !tbaa !4
  %6 = load ptr, ptr %4, align 8, !tbaa !4
  %7 = call zeroext i1 @lean_is_scalar(ptr noundef %6)
  br i1 %7, label %8, label %11

8:                                                ; preds = %2
  %9 = load ptr, ptr %5, align 8, !tbaa !4
  %10 = call zeroext i1 @lean_is_scalar(ptr noundef %9)
  br label %11

11:                                               ; preds = %8, %2
  %12 = phi i1 [ false, %2 ], [ %10, %8 ]
  %13 = zext i1 %12 to i32
  %14 = sext i32 %13 to i64
  %15 = call i64 @llvm.expect.i64(i64 %14, i64 1)
  %16 = icmp ne i64 %15, 0
  br i1 %16, label %17, label %21

17:                                               ; preds = %11
  %18 = load ptr, ptr %4, align 8, !tbaa !4
  %19 = load ptr, ptr %5, align 8, !tbaa !4
  %20 = icmp ule ptr %18, %19
  store i1 %20, ptr %3, align 1
  br label %25

21:                                               ; preds = %11
  %22 = load ptr, ptr %4, align 8, !tbaa !4
  %23 = load ptr, ptr %5, align 8, !tbaa !4
  %24 = call zeroext i1 @lean_nat_big_le(ptr noundef %22, ptr noundef %23)
  store i1 %24, ptr %3, align 1
  br label %25

25:                                               ; preds = %21, %17
  %26 = load i1, ptr %3, align 1
  ret i1 %26
}

; Function Attrs: inlinehint nounwind uwtable
define internal ptr @lean_box(i64 noundef %0) #0 {
  %2 = alloca i64, align 8
  store i64 %0, ptr %2, align 8, !tbaa !8
  %3 = load i64, ptr %2, align 8, !tbaa !8
  %4 = shl i64 %3, 1
  %5 = or i64 %4, 1
  %6 = inttoptr i64 %5 to ptr
  ret ptr %6
}

; Function Attrs: alwaysinline nounwind uwtable
define internal zeroext i8 @lean_nat_dec_le(ptr noundef %0, ptr noundef %1) #1 {
  %3 = alloca ptr, align 8
  %4 = alloca ptr, align 8
  store ptr %0, ptr %3, align 8, !tbaa !4
  store ptr %1, ptr %4, align 8, !tbaa !4
  %5 = load ptr, ptr %3, align 8, !tbaa !4
  %6 = load ptr, ptr %4, align 8, !tbaa !4
  %7 = call zeroext i1 @lean_nat_le(ptr noundef %5, ptr noundef %6)
  %8 = zext i1 %7 to i8
  ret i8 %8
}

; Function Attrs: inlinehint nounwind uwtable
define internal ptr @lean_usize_to_nat(i64 noundef %0) #0 {
  %2 = alloca ptr, align 8
  %3 = alloca i64, align 8
  store i64 %0, ptr %3, align 8, !tbaa !8
  %4 = load i64, ptr %3, align 8, !tbaa !8
  %5 = icmp ule i64 %4, 9223372036854775807
  %6 = zext i1 %5 to i32
  %7 = sext i32 %6 to i64
  %8 = call i64 @llvm.expect.i64(i64 %7, i64 1)
  %9 = icmp ne i64 %8, 0
  br i1 %9, label %10, label %13

10:                                               ; preds = %1
  %11 = load i64, ptr %3, align 8, !tbaa !8
  %12 = call ptr @lean_box(i64 noundef %11)
  store ptr %12, ptr %2, align 8
  br label %16

13:                                               ; preds = %1
  %14 = load i64, ptr %3, align 8, !tbaa !8
  %15 = call ptr @lean_big_usize_to_nat(i64 noundef %14)
  store ptr %15, ptr %2, align 8
  br label %16

16:                                               ; preds = %13, %10
  %17 = load ptr, ptr %2, align 8
  ret ptr %17
}

; Function Attrs: nounwind uwtable
define ptr @l___private_Lean_Meta_Tactic_FunIndInfo_0__Lean_Meta_reprFunIndParamKind____x40_Lean_Meta_Tactic_FunIndInfo___hyg_28_(i8 noundef zeroext %0, ptr noundef %1) #2 {
  %3 = alloca ptr, align 8
  %4 = alloca i8, align 1
  %5 = alloca ptr, align 8
  %6 = alloca ptr, align 8
  %7 = alloca i8, align 1
  %8 = alloca ptr, align 8
  %9 = alloca ptr, align 8
  %10 = alloca i32, align 4
  %11 = alloca ptr, align 8
  %12 = alloca ptr, align 8
  %13 = alloca ptr, align 8
  %14 = alloca i8, align 1
  %15 = alloca ptr, align 8
  %16 = alloca ptr, align 8
  %17 = alloca ptr, align 8
  %18 = alloca ptr, align 8
  %19 = alloca ptr, align 8
  %20 = alloca i8, align 1
  %21 = alloca ptr, align 8
  %22 = alloca ptr, align 8
  %23 = alloca ptr, align 8
  %24 = alloca ptr, align 8
  store i8 %0, ptr %4, align 1, !tbaa !10
  store ptr %1, ptr %5, align 8, !tbaa !4
  br label %25

25:                                               ; preds = %2
  %26 = load i8, ptr %4, align 1, !tbaa !10
  %27 = zext i8 %26 to i32
  switch i32 %27, label %70 [
    i32 0, label %28
    i32 1, label %49
  ]

28:                                               ; preds = %25
  call void @llvm.lifetime.start.p0(i64 8, ptr %6) #7
  call void @llvm.lifetime.start.p0(i64 1, ptr %7) #7
  %29 = call ptr @lean_unsigned_to_nat(i32 noundef 1024)
  store ptr %29, ptr %6, align 8, !tbaa !4
  %30 = load ptr, ptr %6, align 8, !tbaa !4
  %31 = load ptr, ptr %5, align 8, !tbaa !4
  %32 = call zeroext i8 @lean_nat_dec_le(ptr noundef %30, ptr noundef %31)
  store i8 %32, ptr %7, align 1, !tbaa !10
  %33 = load i8, ptr %7, align 1, !tbaa !10
  %34 = zext i8 %33 to i32
  %35 = icmp eq i32 %34, 0
  br i1 %35, label %36, label %42

36:                                               ; preds = %28
  call void @llvm.lifetime.start.p0(i64 8, ptr %8) #7
  call void @llvm.lifetime.start.p0(i64 8, ptr %9) #7
  %37 = load ptr, ptr @l___private_Lean_Meta_Tactic_FunIndInfo_0__Lean_Meta_reprFunIndParamKind____x40_Lean_Meta_Tactic_FunIndInfo___hyg_28____closed__5, align 8, !tbaa !4
  store ptr %37, ptr %8, align 8, !tbaa !4
  %38 = load ptr, ptr %8, align 8, !tbaa !4
  %39 = load ptr, ptr %5, align 8, !tbaa !4
  %40 = call ptr @l_Repr_addAppParen(ptr noundef %38, ptr noundef %39)
  store ptr %40, ptr %9, align 8, !tbaa !4
  %41 = load ptr, ptr %9, align 8, !tbaa !4
  store ptr %41, ptr %3, align 8
  store i32 1, ptr %10, align 4
  call void @llvm.lifetime.end.p0(i64 8, ptr %9) #7
  call void @llvm.lifetime.end.p0(i64 8, ptr %8) #7
  br label %48

42:                                               ; preds = %28
  call void @llvm.lifetime.start.p0(i64 8, ptr %11) #7
  call void @llvm.lifetime.start.p0(i64 8, ptr %12) #7
  %43 = load ptr, ptr @l___private_Lean_Meta_Tactic_FunIndInfo_0__Lean_Meta_reprFunIndParamKind____x40_Lean_Meta_Tactic_FunIndInfo___hyg_28____closed__8, align 8, !tbaa !4
  store ptr %43, ptr %11, align 8, !tbaa !4
  %44 = load ptr, ptr %11, align 8, !tbaa !4
  %45 = load ptr, ptr %5, align 8, !tbaa !4
  %46 = call ptr @l_Repr_addAppParen(ptr noundef %44, ptr noundef %45)
  store ptr %46, ptr %12, align 8, !tbaa !4
  %47 = load ptr, ptr %12, align 8, !tbaa !4
  store ptr %47, ptr %3, align 8
  store i32 1, ptr %10, align 4
  call void @llvm.lifetime.end.p0(i64 8, ptr %12) #7
  call void @llvm.lifetime.end.p0(i64 8, ptr %11) #7
  br label %48

48:                                               ; preds = %42, %36
  call void @llvm.lifetime.end.p0(i64 1, ptr %7) #7
  call void @llvm.lifetime.end.p0(i64 8, ptr %6) #7
  br label %91

49:                                               ; preds = %25
  call void @llvm.lifetime.start.p0(i64 8, ptr %13) #7
  call void @llvm.lifetime.start.p0(i64 1, ptr %14) #7
  %50 = call ptr @lean_unsigned_to_nat(i32 noundef 1024)
  store ptr %50, ptr %13, align 8, !tbaa !4
  %51 = load ptr, ptr %13, align 8, !tbaa !4
  %52 = load ptr, ptr %5, align 8, !tbaa !4
  %53 = call zeroext i8 @lean_nat_dec_le(ptr noundef %51, ptr noundef %52)
  store i8 %53, ptr %14, align 1, !tbaa !10
  %54 = load i8, ptr %14, align 1, !tbaa !10
  %55 = zext i8 %54 to i32
  %56 = icmp eq i32 %55, 0
  br i1 %56, label %57, label %63

57:                                               ; preds = %49
  call void @llvm.lifetime.start.p0(i64 8, ptr %15) #7
  call void @llvm.lifetime.start.p0(i64 8, ptr %16) #7
  %58 = load ptr, ptr @l___private_Lean_Meta_Tactic_FunIndInfo_0__Lean_Meta_reprFunIndParamKind____x40_Lean_Meta_Tactic_FunIndInfo___hyg_28____closed__12, align 8, !tbaa !4
  store ptr %58, ptr %15, align 8, !tbaa !4
  %59 = load ptr, ptr %15, align 8, !tbaa !4
  %60 = load ptr, ptr %5, align 8, !tbaa !4
  %61 = call ptr @l_Repr_addAppParen(ptr noundef %59, ptr noundef %60)
  store ptr %61, ptr %16, align 8, !tbaa !4
  %62 = load ptr, ptr %16, align 8, !tbaa !4
  store ptr %62, ptr %3, align 8
  store i32 1, ptr %10, align 4
  call void @llvm.lifetime.end.p0(i64 8, ptr %16) #7
  call void @llvm.lifetime.end.p0(i64 8, ptr %15) #7
  br label %69

63:                                               ; preds = %49
  call void @llvm.lifetime.start.p0(i64 8, ptr %17) #7
  call void @llvm.lifetime.start.p0(i64 8, ptr %18) #7
  %64 = load ptr, ptr @l___private_Lean_Meta_Tactic_FunIndInfo_0__Lean_Meta_reprFunIndParamKind____x40_Lean_Meta_Tactic_FunIndInfo___hyg_28____closed__14, align 8, !tbaa !4
  store ptr %64, ptr %17, align 8, !tbaa !4
  %65 = load ptr, ptr %17, align 8, !tbaa !4
  %66 = load ptr, ptr %5, align 8, !tbaa !4
  %67 = call ptr @l_Repr_addAppParen(ptr noundef %65, ptr noundef %66)
  store ptr %67, ptr %18, align 8, !tbaa !4
  %68 = load ptr, ptr %18, align 8, !tbaa !4
  store ptr %68, ptr %3, align 8
  store i32 1, ptr %10, align 4
  call void @llvm.lifetime.end.p0(i64 8, ptr %18) #7
  call void @llvm.lifetime.end.p0(i64 8, ptr %17) #7
  br label %69

69:                                               ; preds = %63, %57
  call void @llvm.lifetime.end.p0(i64 1, ptr %14) #7
  call void @llvm.lifetime.end.p0(i64 8, ptr %13) #7
  br label %91

70:                                               ; preds = %25
  call void @llvm.lifetime.start.p0(i64 8, ptr %19) #7
  call void @llvm.lifetime.start.p0(i64 1, ptr %20) #7
  %71 = call ptr @lean_unsigned_to_nat(i32 noundef 1024)
  store ptr %71, ptr %19, align 8, !tbaa !4
  %72 = load ptr, ptr %19, align 8, !tbaa !4
  %73 = load ptr, ptr %5, align 8, !tbaa !4
  %74 = call zeroext i8 @lean_nat_dec_le(ptr noundef %72, ptr noundef %73)
  store i8 %74, ptr %20, align 1, !tbaa !10
  %75 = load i8, ptr %20, align 1, !tbaa !10
  %76 = zext i8 %75 to i32
  %77 = icmp eq i32 %76, 0
  br i1 %77, label %78, label %84

78:                                               ; preds = %70
  call void @llvm.lifetime.start.p0(i64 8, ptr %21) #7
  call void @llvm.lifetime.start.p0(i64 8, ptr %22) #7
  %79 = load ptr, ptr @l___private_Lean_Meta_Tactic_FunIndInfo_0__Lean_Meta_reprFunIndParamKind____x40_Lean_Meta_Tactic_FunIndInfo___hyg_28____closed__18, align 8, !tbaa !4
  store ptr %79, ptr %21, align 8, !tbaa !4
  %80 = load ptr, ptr %21, align 8, !tbaa !4
  %81 = load ptr, ptr %5, align 8, !tbaa !4
  %82 = call ptr @l_Repr_addAppParen(ptr noundef %80, ptr noundef %81)
  store ptr %82, ptr %22, align 8, !tbaa !4
  %83 = load ptr, ptr %22, align 8, !tbaa !4
  store ptr %83, ptr %3, align 8
  store i32 1, ptr %10, align 4
  call void @llvm.lifetime.end.p0(i64 8, ptr %22) #7
  call void @llvm.lifetime.end.p0(i64 8, ptr %21) #7
  br label %90

84:                                               ; preds = %70
  call void @llvm.lifetime.start.p0(i64 8, ptr %23) #7
  call void @llvm.lifetime.start.p0(i64 8, ptr %24) #7
  %85 = load ptr, ptr @l___private_Lean_Meta_Tactic_FunIndInfo_0__Lean_Meta_reprFunIndParamKind____x40_Lean_Meta_Tactic_FunIndInfo___hyg_28____closed__20, align 8, !tbaa !4
  store ptr %85, ptr %23, align 8, !tbaa !4
  %86 = load ptr, ptr %23, align 8, !tbaa !4
  %87 = load ptr, ptr %5, align 8, !tbaa !4
  %88 = call ptr @l_Repr_addAppParen(ptr noundef %86, ptr noundef %87)
  store ptr %88, ptr %24, align 8, !tbaa !4
  %89 = load ptr, ptr %24, align 8, !tbaa !4
  store ptr %89, ptr %3, align 8
  store i32 1, ptr %10, align 4
  call void @llvm.lifetime.end.p0(i64 8, ptr %24) #7
  call void @llvm.lifetime.end.p0(i64 8, ptr %23) #7
  br label %90

90:                                               ; preds = %84, %78
  call void @llvm.lifetime.end.p0(i64 1, ptr %20) #7
  call void @llvm.lifetime.end.p0(i64 8, ptr %19) #7
  br label %91

91:                                               ; preds = %90, %69, %48
  %92 = load ptr, ptr %3, align 8
  ret ptr %92
}

; Function Attrs: inlinehint nounwind uwtable
define internal ptr @lean_unsigned_to_nat(i32 noundef %0) #0 {
  %2 = alloca i32, align 4
  store i32 %0, ptr %2, align 4, !tbaa !11
  %3 = load i32, ptr %2, align 4, !tbaa !11
  %4 = zext i32 %3 to i64
  %5 = call ptr @lean_usize_to_nat(i64 noundef %4)
  ret ptr %5
}

; Function Attrs: nounwind uwtable
define ptr @l_repr___at___private_Lean_Meta_Tactic_FunIndInfo_0__Lean_Meta_reprFunIndInfo____x40_Lean_Meta_Tactic_FunIndInfo___hyg_204____spec__6(i8 noundef zeroext %0) #2 {
  %2 = alloca i8, align 1
  %3 = alloca ptr, align 8
  %4 = alloca ptr, align 8
  store i8 %0, ptr %2, align 1, !tbaa !10
  br label %5

5:                                                ; preds = %1
  call void @llvm.lifetime.start.p0(i64 8, ptr %3) #7
  call void @llvm.lifetime.start.p0(i64 8, ptr %4) #7
  %6 = call ptr @lean_unsigned_to_nat(i32 noundef 0)
  store ptr %6, ptr %3, align 8, !tbaa !4
  %7 = load i8, ptr %2, align 1, !tbaa !10
  %8 = load ptr, ptr %3, align 8, !tbaa !4
  %9 = call ptr @l___private_Lean_Meta_Tactic_FunIndInfo_0__Lean_Meta_reprFunIndParamKind____x40_Lean_Meta_Tactic_FunIndInfo___hyg_28_(i8 noundef zeroext %7, ptr noundef %8)
  store ptr %9, ptr %4, align 8, !tbaa !4
  %10 = load ptr, ptr %4, align 8, !tbaa !4
  call void @llvm.lifetime.end.p0(i64 8, ptr %4) #7
  call void @llvm.lifetime.end.p0(i64 8, ptr %3) #7
  ret ptr %10
}